target datalayout = "e-m:e-p270:32:32-p271:32:32-p272:64:64-i64:64-i128:128-f80:128-n8:16:32:64-S128"
target triple = "x86_64-pc-linux-gnu"

%struct.LogicalRepCtxStruct = type { i32, i32, i64, [0 x %struct.LogicalRepWorker] }
%struct.LogicalRepWorker = type { i32, i64, i8, i16, ptr, i32, i32, i32, i32, i8, i64, i8, ptr, i32, i8, i64, i64, i64, i64, i64 }
%union.LWLockPadded = type { %struct.LWLock, [112 x i8] }
%struct.LWLock = type { i16, %struct.pg_atomic_uint32, %struct.proclist_head }
%struct.pg_atomic_uint32 = type { i32 }
%struct.proclist_head = type { i32, i32 }

@max_logical_replication_workers = dso_local global i32 4, align 4
@LogicalRepCtx = internal global ptr null, align 8
@MainLWLockArray = external global ptr, align 8

; Function Attrs: nounwind uwtable
define dso_local ptr @logicalrep_workers_find(i32 noundef %0, i1 noundef zeroext %1, i1 noundef zeroext %2) #0 {
  %4 = alloca i32, align 4
  %5 = alloca i8, align 1
  %6 = alloca i8, align 1
  %7 = alloca i32, align 4
  %8 = alloca ptr, align 8
  %9 = alloca ptr, align 8
  store i32 %0, ptr %4, align 4
  %10 = zext i1 %1 to i8
  store i8 %10, ptr %5, align 1
  %11 = zext i1 %2 to i8
  store i8 %11, ptr %6, align 1
  call void @llvm.lifetime.start.p0(i64 4, ptr %7) #9
  call void @llvm.lifetime.start.p0(i64 8, ptr %8) #9
  store ptr null, ptr %8, align 8
  %12 = load i8, ptr %6, align 1, !range !4, !noundef !5
  %13 = trunc i8 %12 to i1
  br i1 %13, label %14, label %18

14:                                               ; preds = %3
  %15 = load ptr, ptr @MainLWLockArray, align 8
  %16 = getelementptr inbounds %union.LWLockPadded, ptr %15, i64 43
  %17 = call zeroext i1 @LWLockAcquire(ptr noundef %16, i32 noundef 1)
  br label %18

18:                                               ; preds = %14, %3
  store i32 0, ptr %7, align 4
  br label %19

19:                                               ; preds = %52, %18
  %20 = load i32, ptr %7, align 4
  %21 = load i32, ptr @max_logical_replication_workers, align 4
  %22 = icmp slt i32 %20, %21
  br i1 %22, label %23, label %55

23:                                               ; preds = %19
  call void @llvm.lifetime.start.p0(i64 8, ptr %9) #9
  %24 = load ptr, ptr @LogicalRepCtx, align 8
  %25 = getelementptr inbounds nuw %struct.LogicalRepCtxStruct, ptr %24, i32 0, i32 3
  %26 = load i32, ptr %7, align 4
  %27 = sext i32 %26 to i64
  %28 = getelementptr inbounds [0 x %struct.LogicalRepWorker], ptr %25, i64 0, i64 %27
  store ptr %28, ptr %9, align 8
  %29 = load ptr, ptr %9, align 8
  %30 = getelementptr inbounds nuw %struct.LogicalRepWorker, ptr %29, i32 0, i32 2
  %31 = load i8, ptr %30, align 8, !range !4, !noundef !5
  %32 = trunc i8 %31 to i1
  br i1 %32, label %33, label %51

33:                                               ; preds = %23
  %34 = load ptr, ptr %9, align 8
  %35 = getelementptr inbounds nuw %struct.LogicalRepWorker, ptr %34, i32 0, i32 7
  %36 = load i32, ptr %35, align 8
  %37 = load i32, ptr %4, align 4
  %38 = icmp eq i32 %36, %37
  br i1 %38, label %39, label %51

39:                                               ; preds = %33
  %40 = load i8, ptr %5, align 1, !range !4, !noundef !5
  %41 = trunc i8 %40 to i1
  br i1 %41, label %42, label %47

42:                                               ; preds = %39
  %43 = load ptr, ptr %9, align 8
  %44 = getelementptr inbounds nuw %struct.LogicalRepWorker, ptr %43, i32 0, i32 4
  %45 = load ptr, ptr %44, align 8
  %46 = icmp ne ptr %45, null
  br i1 %46, label %47, label %51

47:                                               ; preds = %42, %39
  %48 = load ptr, ptr %8, align 8
  %49 = load ptr, ptr %9, align 8
  %50 = call ptr @lappend(ptr noundef %48, ptr noundef %49)
  store ptr %50, ptr %8, align 8
  br label %51

51:                                               ; preds = %47, %42, %33, %23
  call void @llvm.lifetime.end.p0(i64 8, ptr %9) #9
  br label %52

52:                                               ; preds = %51
  %53 = load i32, ptr %7, align 4
  %54 = add i32 %53, 1
  store i32 %54, ptr %7, align 4
  br label %19, !llvm.loop !8

55:                                               ; preds = %19
  %56 = load i8, ptr %6, align 1, !range !4, !noundef !5
  %57 = trunc i8 %56 to i1
  br i1 %57, label %58, label %61

58:                                               ; preds = %55
  %59 = load ptr, ptr @MainLWLockArray, align 8
  %60 = getelementptr inbounds %union.LWLockPadded, ptr %59, i64 43
  call void @LWLockRelease(ptr noundef %60)
  br label %61

61:                                               ; preds = %58, %55
  %62 = load ptr, ptr %8, align 8
  call void @llvm.lifetime.end.p0(i64 8, ptr %8) #9
  call void @llvm.lifetime.end.p0(i64 4, ptr %7) #9
  ret ptr %62
}