; Function Attrs: nounwind uwtable
define dso_local ptr @logicalrep_workers_find(i32 noundef %0, i1 noundef zeroext %1, i1 noundef zeroext %2) local_unnamed_addr #2 {
  br i1 %2, label %4, label %8

4:                                                ; preds = %3
  %5 = load ptr, ptr @MainLWLockArray, align 8
  %6 = getelementptr inbounds nuw i8, ptr %5, i64 5504
  %7 = tail call zeroext i1 @LWLockAcquire(ptr noundef nonnull %6, i32 noundef 1) #13
  br label %8

8:                                                ; preds = %4, %3
  %9 = load i32, ptr @max_logical_replication_workers, align 4
  %10 = icmp sgt i32 %9, 0
  br i1 %10, label %.lr.ph, label %._crit_edge

.lr.ph:                                           ; preds = %8
  %.pre23 = load ptr, ptr @LogicalRepCtx, align 8
  br i1 %1, label %.lr.ph.split.us, label %.lr.ph.split

.lr.ph.split.us:                                  ; preds = %.lr.ph, %27
  %11 = phi i32 [ %28, %27 ], [ %9, %.lr.ph ]
  %12 = phi ptr [ %29, %27 ], [ %.pre23, %.lr.ph ]
  %indvars.iv17 = phi i64 [ %indvars.iv.next18, %27 ], [ 0, %.lr.ph ]
  %.01213.us = phi ptr [ %.1.us, %27 ], [ null, %.lr.ph ]
  %13 = getelementptr inbounds nuw i8, ptr %12, i64 16
  %14 = getelementptr inbounds nuw [0 x %struct.LogicalRepWorker], ptr %13, i64 0, i64 %indvars.iv17
  %15 = getelementptr inbounds nuw i8, ptr %14, i64 16
  %16 = load i8, ptr %15, align 8, !range !4, !noundef !5
  %17 = trunc nuw i8 %16 to i1
  br i1 %17, label %18, label %27

18:                                               ; preds = %.lr.ph.split.us
  %19 = getelementptr inbounds nuw i8, ptr %14, i64 40
  %20 = load i32, ptr %19, align 8
  %21 = icmp eq i32 %20, %0
  br i1 %21, label %22, label %27

22:                                               ; preds = %18
  %23 = getelementptr inbounds nuw i8, ptr %14, i64 24
  %24 = load ptr, ptr %23, align 8
  %.not.us = icmp eq ptr %24, null
  br i1 %.not.us, label %27, label %25

25:                                               ; preds = %22
  %26 = tail call ptr @lappend(ptr noundef %.01213.us, ptr noundef nonnull %14) #13
  %.pre22 = load ptr, ptr @LogicalRepCtx, align 8
  %.pre24 = load i32, ptr @max_logical_replication_workers, align 4
  br label %27

27:                                               ; preds = %25, %22, %18, %.lr.ph.split.us
  %28 = phi i32 [ %.pre24, %25 ], [ %11, %22 ], [ %11, %18 ], [ %11, %.lr.ph.split.us ]
  %29 = phi ptr [ %.pre22, %25 ], [ %12, %22 ], [ %12, %18 ], [ %12, %.lr.ph.split.us ]
  %.1.us = phi ptr [ %26, %25 ], [ %.01213.us, %22 ], [ %.01213.us, %18 ], [ %.01213.us, %.lr.ph.split.us ]
  %indvars.iv.next18 = add nuw nsw i64 %indvars.iv17, 1
  %30 = sext i32 %28 to i64
  %31 = icmp slt i64 %indvars.iv.next18, %30
  br i1 %31, label %.lr.ph.split.us, label %._crit_edge, !llvm.loop !8

.lr.ph.split:                                     ; preds = %.lr.ph, %45
  %32 = phi i32 [ %46, %45 ], [ %9, %.lr.ph ]
  %33 = phi ptr [ %47, %45 ], [ %.pre23, %.lr.ph ]
  %indvars.iv = phi i64 [ %indvars.iv.next, %45 ], [ 0, %.lr.ph ]
  %.01213 = phi ptr [ %.1, %45 ], [ null, %.lr.ph ]
  %34 = getelementptr inbounds nuw i8, ptr %33, i64 16
  %35 = getelementptr inbounds nuw [0 x %struct.LogicalRepWorker], ptr %34, i64 0, i64 %indvars.iv
  %36 = getelementptr inbounds nuw i8, ptr %35, i64 16
  %37 = load i8, ptr %36, align 8, !range !4, !noundef !5
  %38 = trunc nuw i8 %37 to i1
  br i1 %38, label %39, label %45

39:                                               ; preds = %.lr.ph.split
  %40 = getelementptr inbounds nuw i8, ptr %35, i64 40
  %41 = load i32, ptr %40, align 8
  %42 = icmp eq i32 %41, %0
  br i1 %42, label %43, label %45

43:                                               ; preds = %39
  %44 = tail call ptr @lappend(ptr noundef %.01213, ptr noundef nonnull %35) #13
  %.pre = load ptr, ptr @LogicalRepCtx, align 8
  %.pre21 = load i32, ptr @max_logical_replication_workers, align 4
  br label %45

45:                                               ; preds = %43, %39, %.lr.ph.split
  %46 = phi i32 [ %.pre21, %43 ], [ %32, %39 ], [ %32, %.lr.ph.split ]
  %47 = phi ptr [ %.pre, %43 ], [ %33, %39 ], [ %33, %.lr.ph.split ]
  %.1 = phi ptr [ %44, %43 ], [ %.01213, %39 ], [ %.01213, %.lr.ph.split ]
  %indvars.iv.next = add nuw nsw i64 %indvars.iv, 1
  %48 = sext i32 %46 to i64
  %49 = icmp slt i64 %indvars.iv.next, %48
  br i1 %49, label %.lr.ph.split, label %._crit_edge, !llvm.loop !8

._crit_edge:                                      ; preds = %45, %27, %8
  %.012.lcssa = phi ptr [ null, %8 ], [ %.1.us, %27 ], [ %.1, %45 ]
  br i1 %2, label %50, label %53

50:                                               ; preds = %._crit_edge
  %51 = load ptr, ptr @MainLWLockArray, align 8
  %52 = getelementptr inbounds nuw i8, ptr %51, i64 5504
  tail call void @LWLockRelease(ptr noundef nonnull %52) #13
  br label %53

53:                                               ; preds = %50, %._crit_edge
  ret ptr %.012.lcssa
}